; Function Attrs: nounwind uwtable
define void @Ivy_ManTestCutsBool(ptr noundef %0) local_unnamed_addr #0 {
  %2 = tail call noalias dereferenceable_or_null(16) ptr @malloc(i64 noundef 16) #20
  %3 = getelementptr inbounds nuw i8, ptr %2, i64 4
  store i32 0, ptr %3, align 4
  store i32 100, ptr %2, align 8
  %4 = tail call noalias dereferenceable_or_null(800) ptr @malloc(i64 noundef 800) #20
  %5 = getelementptr inbounds nuw i8, ptr %2, i64 8
  store ptr %4, ptr %5, align 8
  %6 = tail call noalias dereferenceable_or_null(16) ptr @malloc(i64 noundef 16) #20
  %7 = getelementptr inbounds nuw i8, ptr %6, i64 4
  store i32 0, ptr %7, align 4
  store i32 100, ptr %6, align 8
  %8 = tail call noalias dereferenceable_or_null(800) ptr @malloc(i64 noundef 800) #20
  %9 = getelementptr inbounds nuw i8, ptr %6, i64 8
  store ptr %8, ptr %9, align 8
  %10 = tail call noalias dereferenceable_or_null(16) ptr @malloc(i64 noundef 16) #20
  %11 = getelementptr inbounds nuw i8, ptr %10, i64 4
  store i32 0, ptr %11, align 4
  store i32 100, ptr %10, align 8
  %12 = tail call noalias dereferenceable_or_null(800) ptr @malloc(i64 noundef 800) #20
  %13 = getelementptr inbounds nuw i8, ptr %10, i64 8
  store ptr %12, ptr %13, align 8
  %14 = getelementptr inbounds nuw i8, ptr %0, i64 24
  %15 = load ptr, ptr %14, align 8
  %16 = getelementptr i8, ptr %15, i64 4
  %.val2431 = load i32, ptr %16, align 4
  %17 = icmp sgt i32 %.val2431, 0
  br i1 %17, label %.lr.ph, label %.critedge

.lr.ph:                                           ; preds = %1, %40
  %indvars.iv = phi i64 [ %indvars.iv.next, %40 ], [ 0, %1 ]
  %18 = phi ptr [ %41, %40 ], [ %15, %1 ]
  %19 = getelementptr i8, ptr %18, i64 8
  %.val = load ptr, ptr %19, align 8
  %20 = getelementptr inbounds nuw ptr, ptr %.val, i64 %indvars.iv
  %21 = load ptr, ptr %20, align 8
  %22 = icmp eq ptr %21, null
  br i1 %22, label %40, label %23

23:                                               ; preds = %.lr.ph
  %24 = getelementptr i8, ptr %21, i64 8
  %.val25 = load i32, ptr %24, align 8
  %25 = and i32 %.val25, 15
  %26 = add nsw i32 %25, -7
  %narrow.i = icmp ult i32 %26, -2
  br i1 %narrow.i, label %40, label %27

27:                                               ; preds = %23
  %28 = tail call i32 @Ivy_ObjIsMuxType(ptr noundef nonnull %21) #18
  %.not19 = icmp eq i32 %28, 0
  br i1 %.not19, label %30, label %29

29:                                               ; preds = %27
  %putchar22 = tail call i32 @putchar(i32 109)
  br label %40

30:                                               ; preds = %27
  %.val26 = load i32, ptr %24, align 8
  %31 = and i32 %.val26, 15
  %.not = icmp eq i32 %31, 6
  br i1 %.not, label %32, label %33

32:                                               ; preds = %30
  %putchar21 = tail call i32 @putchar(i32 120)
  br label %33

33:                                               ; preds = %32, %30
  %34 = tail call i32 @Ivy_ManFindBoolCut(ptr noundef nonnull %0, ptr noundef nonnull %21, ptr noundef nonnull %2, ptr noundef nonnull %6, ptr noundef nonnull %10)
  %35 = icmp eq i32 %34, 0
  br i1 %35, label %36, label %38

36:                                               ; preds = %33
  %37 = tail call i32 (ptr, ...) @printf(ptr noundef nonnull dereferenceable(1) @.str.3)
  br label %40

38:                                               ; preds = %33
  %.val23 = load i32, ptr %11, align 4
  %39 = tail call i32 (ptr, ...) @printf(ptr noundef nonnull dereferenceable(1) @.str.4, i32 noundef %.val23)
  br label %40

40:                                               ; preds = %.lr.ph, %38, %36, %23, %29
  %indvars.iv.next = add nuw nsw i64 %indvars.iv, 1
  %41 = load ptr, ptr %14, align 8
  %42 = getelementptr i8, ptr %41, i64 4
  %.val24 = load i32, ptr %42, align 4
  %43 = sext i32 %.val24 to i64
  %44 = icmp slt i64 %indvars.iv.next, %43
  br i1 %44, label %.lr.ph, label %.critedge, !llvm.loop !21

.critedge:                                        ; preds = %40, %1
  %putchar = tail call i32 @putchar(i32 10)
  %45 = load ptr, ptr %5, align 8
  %.not.i = icmp eq ptr %45, null
  br i1 %.not.i, label %Vec_PtrFree.exit, label %46

46:                                               ; preds = %.critedge
  tail call void @free(ptr noundef nonnull %45) #18
  br label %Vec_PtrFree.exit

Vec_PtrFree.exit:                                 ; preds = %.critedge, %46
  tail call void @free(ptr noundef nonnull %2) #18
  %47 = load ptr, ptr %9, align 8
  %.not.i27 = icmp eq ptr %47, null
  br i1 %.not.i27, label %Vec_PtrFree.exit28, label %48

48:                                               ; preds = %Vec_PtrFree.exit
  tail call void @free(ptr noundef nonnull %47) #18
  br label %Vec_PtrFree.exit28

Vec_PtrFree.exit28:                               ; preds = %Vec_PtrFree.exit, %48
  tail call void @free(ptr noundef nonnull %6) #18
  %49 = load ptr, ptr %13, align 8
  %.not.i29 = icmp eq ptr %49, null
  br i1 %.not.i29, label %Vec_PtrFree.exit30, label %50

50:                                               ; preds = %Vec_PtrFree.exit28
  tail call void @free(ptr noundef nonnull %49) #18
  br label %Vec_PtrFree.exit30

Vec_PtrFree.exit30:                               ; preds = %Vec_PtrFree.exit28, %50
  tail call void @free(ptr noundef nonnull %10) #18
  ret void
}